; Function Attrs: nounwind uwtable
define ptr @l_Array_forIn_x27Unsafe_loop___at___private_Lean_Elab_MutualInductive_0__Lean_Elab_Command_mkAuxConstructions___spec__2___boxed(ptr noundef %0, ptr noundef %1, ptr noundef %2, ptr noundef %3, ptr noundef %4, ptr noundef %5, ptr noundef %6, ptr noundef %7, ptr noundef %8, ptr noundef %9, ptr noundef %10, ptr noundef %11, ptr noundef %12, ptr noundef %13, ptr noundef %14) local_unnamed_addr #1 {
  %16 = ptrtoint ptr %1 to i64
  %17 = lshr i64 %16, 1
  %18 = trunc i64 %17 to i8
  %19 = and i64 %16, 1
  %.not = icmp eq i64 %19, 0
  br i1 %.not, label %20, label %lean_dec.exit35

20:                                               ; preds = %15
  %21 = load i32, ptr %1, align 4, !tbaa !8
  %22 = icmp sgt i32 %21, 1
  br i1 %22, label %23, label %25, !prof !11

23:                                               ; preds = %20
  %24 = add nsw i32 %21, -1
  store i32 %24, ptr %1, align 4, !tbaa !8
  br label %lean_dec.exit35

25:                                               ; preds = %20
  %.not.i = icmp eq i32 %21, 0
  br i1 %.not.i, label %lean_dec.exit35, label %26

26:                                               ; preds = %25
  tail call void @lean_dec_ref_cold(ptr noundef nonnull %1) #5
  br label %lean_dec.exit35

lean_dec.exit35:                                  ; preds = %26, %25, %23, %15
  %27 = ptrtoint ptr %2 to i64
  %28 = lshr i64 %27, 1
  %29 = trunc i64 %28 to i8
  %30 = and i64 %27, 1
  %.not53 = icmp eq i64 %30, 0
  br i1 %.not53, label %31, label %lean_dec.exit34

31:                                               ; preds = %lean_dec.exit35
  %32 = load i32, ptr %2, align 4, !tbaa !8
  %33 = icmp sgt i32 %32, 1
  br i1 %33, label %34, label %36, !prof !11

34:                                               ; preds = %31
  %35 = add nsw i32 %32, -1
  store i32 %35, ptr %2, align 4, !tbaa !8
  br label %lean_dec.exit34

36:                                               ; preds = %31
  %.not.i36 = icmp eq i32 %32, 0
  br i1 %.not.i36, label %lean_dec.exit34, label %37

37:                                               ; preds = %36
  tail call void @lean_dec_ref_cold(ptr noundef nonnull %2) #5
  br label %lean_dec.exit34

lean_dec.exit34:                                  ; preds = %37, %36, %34, %lean_dec.exit35
  %38 = getelementptr i8, ptr %5, i64 8
  %.val52 = load i64, ptr %38, align 8, !tbaa !4
  %39 = ptrtoint ptr %5 to i64
  %40 = and i64 %39, 1
  %.not54 = icmp eq i64 %40, 0
  br i1 %.not54, label %41, label %lean_dec.exit33

41:                                               ; preds = %lean_dec.exit34
  %42 = load i32, ptr %5, align 4, !tbaa !8
  %43 = icmp sgt i32 %42, 1
  br i1 %43, label %44, label %46, !prof !11

44:                                               ; preds = %41
  %45 = add nsw i32 %42, -1
  store i32 %45, ptr %5, align 4, !tbaa !8
  br label %lean_dec.exit33

46:                                               ; preds = %41
  %.not.i38 = icmp eq i32 %42, 0
  br i1 %.not.i38, label %lean_dec.exit33, label %47

47:                                               ; preds = %46
  tail call void @lean_dec_ref_cold(ptr noundef nonnull %5) #5
  br label %lean_dec.exit33

lean_dec.exit33:                                  ; preds = %47, %46, %44, %lean_dec.exit34
  %48 = getelementptr i8, ptr %6, i64 8
  %.val = load i64, ptr %48, align 8, !tbaa !4
  %49 = ptrtoint ptr %6 to i64
  %50 = and i64 %49, 1
  %.not55 = icmp eq i64 %50, 0
  br i1 %.not55, label %51, label %lean_dec.exit32

51:                                               ; preds = %lean_dec.exit33
  %52 = load i32, ptr %6, align 4, !tbaa !8
  %53 = icmp sgt i32 %52, 1
  br i1 %53, label %54, label %56, !prof !11

54:                                               ; preds = %51
  %55 = add nsw i32 %52, -1
  store i32 %55, ptr %6, align 4, !tbaa !8
  br label %lean_dec.exit32

56:                                               ; preds = %51
  %.not.i40 = icmp eq i32 %52, 0
  br i1 %.not.i40, label %lean_dec.exit32, label %57

57:                                               ; preds = %56
  tail call void @lean_dec_ref_cold(ptr noundef nonnull %6) #5
  br label %lean_dec.exit32

lean_dec.exit32:                                  ; preds = %57, %56, %54, %lean_dec.exit33
  %58 = tail call ptr @l_Array_forIn_x27Unsafe_loop___at___private_Lean_Elab_MutualInductive_0__Lean_Elab_Command_mkAuxConstructions___spec__2(ptr poison, i8 noundef zeroext %18, i8 noundef zeroext %29, ptr poison, ptr noundef %4, i64 noundef %.val52, i64 noundef %.val, ptr noundef %7, ptr poison, ptr poison, ptr noundef %10, ptr noundef %11, ptr noundef %12, ptr noundef %13, ptr noundef %14)
  %59 = ptrtoint ptr %9 to i64
  %60 = and i64 %59, 1
  %.not56 = icmp eq i64 %60, 0
  br i1 %.not56, label %61, label %lean_dec.exit31

61:                                               ; preds = %lean_dec.exit32
  %62 = load i32, ptr %9, align 4, !tbaa !8
  %63 = icmp sgt i32 %62, 1
  br i1 %63, label %64, label %66, !prof !11

64:                                               ; preds = %61
  %65 = add nsw i32 %62, -1
  store i32 %65, ptr %9, align 4, !tbaa !8
  br label %lean_dec.exit31

66:                                               ; preds = %61
  %.not.i42 = icmp eq i32 %62, 0
  br i1 %.not.i42, label %lean_dec.exit31, label %67

67:                                               ; preds = %66
  tail call void @lean_dec_ref_cold(ptr noundef nonnull %9) #5
  br label %lean_dec.exit31

lean_dec.exit31:                                  ; preds = %67, %66, %64, %lean_dec.exit32
  %68 = ptrtoint ptr %8 to i64
  %69 = and i64 %68, 1
  %.not57 = icmp eq i64 %69, 0
  br i1 %.not57, label %70, label %lean_dec.exit30

70:                                               ; preds = %lean_dec.exit31
  %71 = load i32, ptr %8, align 4, !tbaa !8
  %72 = icmp sgt i32 %71, 1
  br i1 %72, label %73, label %75, !prof !11

73:                                               ; preds = %70
  %74 = add nsw i32 %71, -1
  store i32 %74, ptr %8, align 4, !tbaa !8
  br label %lean_dec.exit30

75:                                               ; preds = %70
  %.not.i44 = icmp eq i32 %71, 0
  br i1 %.not.i44, label %lean_dec.exit30, label %76

76:                                               ; preds = %75
  tail call void @lean_dec_ref_cold(ptr noundef nonnull %8) #5
  br label %lean_dec.exit30

lean_dec.exit30:                                  ; preds = %76, %75, %73, %lean_dec.exit31
  %77 = ptrtoint ptr %4 to i64
  %78 = and i64 %77, 1
  %.not58 = icmp eq i64 %78, 0
  br i1 %.not58, label %79, label %lean_dec.exit29

79:                                               ; preds = %lean_dec.exit30
  %80 = load i32, ptr %4, align 4, !tbaa !8
  %81 = icmp sgt i32 %80, 1
  br i1 %81, label %82, label %84, !prof !11

82:                                               ; preds = %79
  %83 = add nsw i32 %80, -1
  store i32 %83, ptr %4, align 4, !tbaa !8
  br label %lean_dec.exit29

84:                                               ; preds = %79
  %.not.i46 = icmp eq i32 %80, 0
  br i1 %.not.i46, label %lean_dec.exit29, label %85

85:                                               ; preds = %84
  tail call void @lean_dec_ref_cold(ptr noundef nonnull %4) #5
  br label %lean_dec.exit29

lean_dec.exit29:                                  ; preds = %85, %84, %82, %lean_dec.exit30
  %86 = ptrtoint ptr %3 to i64
  %87 = and i64 %86, 1
  %.not59 = icmp eq i64 %87, 0
  br i1 %.not59, label %88, label %lean_dec.exit28

88:                                               ; preds = %lean_dec.exit29
  %89 = load i32, ptr %3, align 4, !tbaa !8
  %90 = icmp sgt i32 %89, 1
  br i1 %90, label %91, label %93, !prof !11

91:                                               ; preds = %88
  %92 = add nsw i32 %89, -1
  store i32 %92, ptr %3, align 4, !tbaa !8
  br label %lean_dec.exit28

93:                                               ; preds = %88
  %.not.i48 = icmp eq i32 %89, 0
  br i1 %.not.i48, label %lean_dec.exit28, label %94

94:                                               ; preds = %93
  tail call void @lean_dec_ref_cold(ptr noundef nonnull %3) #5
  br label %lean_dec.exit28

lean_dec.exit28:                                  ; preds = %94, %93, %91, %lean_dec.exit29
  %95 = ptrtoint ptr %0 to i64
  %96 = and i64 %95, 1
  %.not60 = icmp eq i64 %96, 0
  br i1 %.not60, label %97, label %lean_dec.exit

97:                                               ; preds = %lean_dec.exit28
  %98 = load i32, ptr %0, align 4, !tbaa !8
  %99 = icmp sgt i32 %98, 1
  br i1 %99, label %100, label %102, !prof !11

100:                                              ; preds = %97
  %101 = add nsw i32 %98, -1
  store i32 %101, ptr %0, align 4, !tbaa !8
  br label %lean_dec.exit

102:                                              ; preds = %97
  %.not.i50 = icmp eq i32 %98, 0
  br i1 %.not.i50, label %lean_dec.exit, label %103

103:                                              ; preds = %102
  tail call void @lean_dec_ref_cold(ptr noundef nonnull %0) #5
  br label %lean_dec.exit

lean_dec.exit:                                    ; preds = %103, %102, %100, %lean_dec.exit28
  ret ptr %58
}